target datalayout = "e-m:e-p270:32:32-p271:32:32-p272:64:64-i64:64-i128:128-f80:128-n8:16:32:64-S128"
target triple = "x86_64-pc-linux-gnu"

%"class.cvc5::internal::NodeTemplate.276" = type { ptr }
%"class.cvc5::internal::theory::arith::nl::transcendental::ExponentialSolver" = type { %"class.cvc5::internal::EnvObj", ptr, %"class.std::map" }
%"class.cvc5::internal::EnvObj" = type { ptr, ptr }
%"class.std::map" = type { %"class.std::_Rb_tree" }
%"class.std::_Rb_tree" = type { %"struct.std::_Rb_tree<cvc5::internal::NodeTemplate<true>, std::pair<const cvc5::internal::NodeTemplate<true>, bool>, std::_Select1st<std::pair<const cvc5::internal::NodeTemplate<true>, bool>>, std::less<cvc5::internal::NodeTemplate<true>>>::_Rb_tree_impl" }
%"struct.std::_Rb_tree<cvc5::internal::NodeTemplate<true>, std::pair<const cvc5::internal::NodeTemplate<true>, bool>, std::_Select1st<std::pair<const cvc5::internal::NodeTemplate<true>, bool>>, std::less<cvc5::internal::NodeTemplate<true>>>::_Rb_tree_impl" = type { [8 x i8], %"struct.std::_Rb_tree_header" }
%"struct.std::_Rb_tree_header" = type { %"struct.std::_Rb_tree_node_base", i64 }
%"struct.std::_Rb_tree_node_base" = type { i32, ptr, ptr, ptr }
%"class.cvc5::internal::NodeTemplate" = type { ptr }
%"struct.std::pair.510" = type { %"class.cvc5::internal::NodeTemplate.276", %"class.cvc5::internal::NodeTemplate.276" }

; Function Attrs: mustprogress nounwind uwtable
define linkonce_odr hidden void @_ZN4cvc58internal12NodeTemplateILb0EED2Ev(ptr noundef nonnull align 8 dereferenceable(8) %0) unnamed_addr #5 comdat align 2 {
  %2 = alloca ptr, align 8
  store ptr %0, ptr %2, align 8, !tbaa !31
  ret void
}

; Function Attrs: mustprogress nounwind uwtable
define linkonce_odr hidden void @_ZN4cvc58internal12NodeTemplateILb0EEC2ERKS2_(ptr noundef nonnull align 8 dereferenceable(8) %0, ptr noundef nonnull align 8 dereferenceable(8) %1) unnamed_addr #5 comdat align 2 {
  %3 = alloca ptr, align 8
  %4 = alloca ptr, align 8
  store ptr %0, ptr %3, align 8, !tbaa !31
  store ptr %1, ptr %4, align 8, !tbaa !31
  %5 = load ptr, ptr %3, align 8
  %6 = load ptr, ptr %4, align 8, !tbaa !31
  %7 = getelementptr inbounds nuw %"class.cvc5::internal::NodeTemplate", ptr %6, i32 0, i32 0
  %8 = load ptr, ptr %7, align 8, !tbaa !98
  %9 = getelementptr inbounds nuw %"class.cvc5::internal::NodeTemplate", ptr %5, i32 0, i32 0
  store ptr %8, ptr %9, align 8, !tbaa !98
  ret void
}

; Function Attrs: mustprogress uwtable
define hidden void @_ZN4cvc58internal6theory5arith2nl14transcendental17ExponentialSolver14doSecantLemmasENS0_12NodeTemplateILb0EEES7_S7_S7_jj(ptr noundef nonnull align 8 dereferenceable(72) %0, ptr noundef %1, ptr noundef %2, ptr noundef %3, ptr noundef %4, i32 noundef %5, i32 noundef %6) #4 align 2 personality ptr @__gxx_personality_v0 {
  %8 = alloca ptr, align 8
  %9 = alloca ptr, align 8
  %10 = alloca ptr, align 8
  %11 = alloca ptr, align 8
  %12 = alloca ptr, align 8
  %13 = alloca i32, align 4
  %14 = alloca i32, align 4
  %15 = alloca %"struct.std::pair.510", align 8
  %16 = alloca %"class.cvc5::internal::NodeTemplate", align 8
  %17 = alloca %"class.cvc5::internal::NodeTemplate", align 8
  %18 = alloca ptr, align 8
  %19 = alloca i32, align 4
  %20 = alloca %"class.cvc5::internal::NodeTemplate", align 8
  %21 = alloca %"class.cvc5::internal::NodeTemplate", align 8
  %22 = alloca %"class.cvc5::internal::NodeTemplate", align 8
  %23 = alloca %"class.cvc5::internal::NodeTemplate", align 8
  store ptr %0, ptr %8, align 8, !tbaa !3
  store ptr %1, ptr %9, align 8, !tbaa !31
  store ptr %2, ptr %10, align 8, !tbaa !31
  store ptr %3, ptr %11, align 8, !tbaa !31
  store ptr %4, ptr %12, align 8, !tbaa !31
  store i32 %5, ptr %13, align 4, !tbaa !102
  store i32 %6, ptr %14, align 4, !tbaa !102
  %24 = load ptr, ptr %8, align 8
  %25 = getelementptr inbounds nuw %"class.cvc5::internal::theory::arith::nl::transcendental::ExponentialSolver", ptr %24, i32 0, i32 1
  %26 = load ptr, ptr %25, align 8, !tbaa !14
  call void @llvm.lifetime.start.p0(i64 16, ptr %15) #3
  call void @_ZN4cvc58internal12NodeTemplateILb0EEC2ERKS2_(ptr noundef nonnull align 8 dereferenceable(8) %16, ptr noundef nonnull align 8 dereferenceable(8) %1)
  invoke void @_ZN4cvc58internal12NodeTemplateILb0EEC2ERKS2_(ptr noundef nonnull align 8 dereferenceable(8) %17, ptr noundef nonnull align 8 dereferenceable(8) %3)
          to label %27 unwind label %37

27:                                               ; preds = %7
  %28 = load i32, ptr %13, align 4, !tbaa !102
  invoke void @_ZN4cvc58internal6theory5arith2nl14transcendental17ExponentialSolver15getSecantBoundsENS0_12NodeTemplateILb0EEES7_j(ptr dead_on_unwind writable sret(%"struct.std::pair.510") align 8 %15, ptr noundef nonnull align 8 dereferenceable(72) %24, ptr noundef %16, ptr noundef %17, i32 noundef %28)
          to label %29 unwind label %41

29:                                               ; preds = %27
  invoke void @_ZN4cvc58internal12NodeTemplateILb0EEC2ERKS2_(ptr noundef nonnull align 8 dereferenceable(8) %20, ptr noundef nonnull align 8 dereferenceable(8) %2)
          to label %30 unwind label %45

30:                                               ; preds = %29
  invoke void @_ZN4cvc58internal12NodeTemplateILb0EEC2ERKS2_(ptr noundef nonnull align 8 dereferenceable(8) %21, ptr noundef nonnull align 8 dereferenceable(8) %3)
          to label %31 unwind label %49

31:                                               ; preds = %30
  invoke void @_ZN4cvc58internal12NodeTemplateILb0EEC2ERKS2_(ptr noundef nonnull align 8 dereferenceable(8) %22, ptr noundef nonnull align 8 dereferenceable(8) %4)
          to label %32 unwind label %53

32:                                               ; preds = %31
  invoke void @_ZN4cvc58internal12NodeTemplateILb0EEC2ERKS2_(ptr noundef nonnull align 8 dereferenceable(8) %23, ptr noundef nonnull align 8 dereferenceable(8) %1)
          to label %33 unwind label %57

33:                                               ; preds = %32
  %34 = load i32, ptr %13, align 4, !tbaa !102
  %35 = load i32, ptr %14, align 4, !tbaa !102
  invoke void @_ZN4cvc58internal6theory5arith2nl14transcendental19TranscendentalState14doSecantLemmasERKSt4pairINS0_12NodeTemplateILb1EEES8_ENS7_ILb0EEESC_SC_SC_NS4_9ConvexityEjj(ptr noundef nonnull align 8 dereferenceable(696) %26, ptr noundef nonnull align 8 dereferenceable(16) %15, ptr noundef %20, ptr noundef %21, ptr noundef %22, ptr noundef %23, i32 noundef 0, i32 noundef %34, i32 noundef %35)
          to label %36 unwind label %61

36:                                               ; preds = %33
  call void @_ZN4cvc58internal12NodeTemplateILb0EED2Ev(ptr noundef nonnull align 8 dereferenceable(8) %23) #3
  call void @_ZN4cvc58internal12NodeTemplateILb0EED2Ev(ptr noundef nonnull align 8 dereferenceable(8) %22) #3
  call void @_ZN4cvc58internal12NodeTemplateILb0EED2Ev(ptr noundef nonnull align 8 dereferenceable(8) %21) #3
  call void @_ZN4cvc58internal12NodeTemplateILb0EED2Ev(ptr noundef nonnull align 8 dereferenceable(8) %20) #3
  call void @_ZNSt4pairIN4cvc58internal12NodeTemplateILb1EEES3_ED2Ev(ptr noundef nonnull align 8 dereferenceable(16) %15) #3
  call void @_ZN4cvc58internal12NodeTemplateILb0EED2Ev(ptr noundef nonnull align 8 dereferenceable(8) %17) #3
  call void @_ZN4cvc58internal12NodeTemplateILb0EED2Ev(ptr noundef nonnull align 8 dereferenceable(8) %16) #3
  call void @llvm.lifetime.end.p0(i64 16, ptr %15) #3
  ret void

37:                                               ; preds = %7
  %38 = landingpad { ptr, i32 }
          cleanup
  %39 = extractvalue { ptr, i32 } %38, 0
  store ptr %39, ptr %18, align 8
  %40 = extractvalue { ptr, i32 } %38, 1
  store i32 %40, ptr %19, align 4
  br label %70

41:                                               ; preds = %27
  %42 = landingpad { ptr, i32 }
          cleanup
  %43 = extractvalue { ptr, i32 } %42, 0
  store ptr %43, ptr %18, align 8
  %44 = extractvalue { ptr, i32 } %42, 1
  store i32 %44, ptr %19, align 4
  br label %69

45:                                               ; preds = %29
  %46 = landingpad { ptr, i32 }
          cleanup
  %47 = extractvalue { ptr, i32 } %46, 0
  store ptr %47, ptr %18, align 8
  %48 = extractvalue { ptr, i32 } %46, 1
  store i32 %48, ptr %19, align 4
  br label %68

49:                                               ; preds = %30
  %50 = landingpad { ptr, i32 }
          cleanup
  %51 = extractvalue { ptr, i32 } %50, 0
  store ptr %51, ptr %18, align 8
  %52 = extractvalue { ptr, i32 } %50, 1
  store i32 %52, ptr %19, align 4
  br label %67

53:                                               ; preds = %31
  %54 = landingpad { ptr, i32 }
          cleanup
  %55 = extractvalue { ptr, i32 } %54, 0
  store ptr %55, ptr %18, align 8
  %56 = extractvalue { ptr, i32 } %54, 1
  store i32 %56, ptr %19, align 4
  br label %66

57:                                               ; preds = %32
  %58 = landingpad { ptr, i32 }
          cleanup
  %59 = extractvalue { ptr, i32 } %58, 0
  store ptr %59, ptr %18, align 8
  %60 = extractvalue { ptr, i32 } %58, 1
  store i32 %60, ptr %19, align 4
  br label %65

61:                                               ; preds = %33
  %62 = landingpad { ptr, i32 }
          cleanup
  %63 = extractvalue { ptr, i32 } %62, 0
  store ptr %63, ptr %18, align 8
  %64 = extractvalue { ptr, i32 } %62, 1
  store i32 %64, ptr %19, align 4
  call void @_ZN4cvc58internal12NodeTemplateILb0EED2Ev(ptr noundef nonnull align 8 dereferenceable(8) %23) #3
  br label %65

65:                                               ; preds = %61, %57
  call void @_ZN4cvc58internal12NodeTemplateILb0EED2Ev(ptr noundef nonnull align 8 dereferenceable(8) %22) #3
  br label %66

66:                                               ; preds = %65, %53
  call void @_ZN4cvc58internal12NodeTemplateILb0EED2Ev(ptr noundef nonnull align 8 dereferenceable(8) %21) #3
  br label %67

67:                                               ; preds = %66, %49
  call void @_ZN4cvc58internal12NodeTemplateILb0EED2Ev(ptr noundef nonnull align 8 dereferenceable(8) %20) #3
  br label %68

68:                                               ; preds = %67, %45
  call void @_ZNSt4pairIN4cvc58internal12NodeTemplateILb1EEES3_ED2Ev(ptr noundef nonnull align 8 dereferenceable(16) %15) #3
  br label %69

69:                                               ; preds = %68, %41
  call void @_ZN4cvc58internal12NodeTemplateILb0EED2Ev(ptr noundef nonnull align 8 dereferenceable(8) %17) #3
  br label %70

70:                                               ; preds = %69, %37
  call void @_ZN4cvc58internal12NodeTemplateILb0EED2Ev(ptr noundef nonnull align 8 dereferenceable(8) %16) #3
  call void @llvm.lifetime.end.p0(i64 16, ptr %15) #3
  br label %71

71:                                               ; preds = %70
  %72 = load ptr, ptr %18, align 8
  %73 = load i32, ptr %19, align 4
  %74 = insertvalue { ptr, i32 } poison, ptr %72, 0
  %75 = insertvalue { ptr, i32 } %74, i32 %73, 1
  resume { ptr, i32 } %75
}