; Function Attrs: mustprogress uwtable
define hidden void @_ZN4cvc58internal6theory5arith2nl14transcendental17ExponentialSolver14doSecantLemmasENS0_12NodeTemplateILb0EEES7_S7_S7_jj(ptr noundef nonnull align 8 dereferenceable(72) %0, ptr noundef readonly captures(none) %1, ptr noundef readonly captures(none) %2, ptr noundef readonly captures(none) %3, ptr noundef readonly captures(none) %4, i32 noundef %5, i32 noundef %6) local_unnamed_addr #3 align 2 personality ptr @__gxx_personality_v0 {
  %8 = alloca %"struct.std::pair.510", align 8
  %9 = alloca %"class.cvc5::internal::NodeTemplate", align 8
  %10 = alloca %"class.cvc5::internal::NodeTemplate", align 8
  %11 = alloca %"class.cvc5::internal::NodeTemplate", align 8
  %12 = alloca %"class.cvc5::internal::NodeTemplate", align 8
  %13 = alloca %"class.cvc5::internal::NodeTemplate", align 8
  %14 = alloca %"class.cvc5::internal::NodeTemplate", align 8
  %15 = getelementptr inbounds nuw i8, ptr %0, i64 16
  %16 = load ptr, ptr %15, align 8, !tbaa !6
  call void @llvm.lifetime.start.p0(i64 16, ptr nonnull %8) #24
  %17 = load ptr, ptr %1, align 8, !tbaa !31
  store ptr %17, ptr %9, align 8, !tbaa !31
  %18 = load ptr, ptr %3, align 8, !tbaa !31
  store ptr %18, ptr %10, align 8, !tbaa !31
  call void @_ZN4cvc58internal6theory5arith2nl14transcendental17ExponentialSolver15getSecantBoundsENS0_12NodeTemplateILb0EEES7_j(ptr dead_on_unwind nonnull writable sret(%"struct.std::pair.510") align 8 %8, ptr noundef nonnull align 8 dereferenceable(72) %0, ptr noundef nonnull %9, ptr noundef nonnull %10, i32 noundef %5)
  %19 = load ptr, ptr %2, align 8, !tbaa !31
  store ptr %19, ptr %11, align 8, !tbaa !31
  %20 = load ptr, ptr %3, align 8, !tbaa !31
  store ptr %20, ptr %12, align 8, !tbaa !31
  %21 = load ptr, ptr %4, align 8, !tbaa !31
  store ptr %21, ptr %13, align 8, !tbaa !31
  %22 = load ptr, ptr %1, align 8, !tbaa !31
  store ptr %22, ptr %14, align 8, !tbaa !31
  invoke void @_ZN4cvc58internal6theory5arith2nl14transcendental19TranscendentalState14doSecantLemmasERKSt4pairINS0_12NodeTemplateILb1EEES8_ENS7_ILb0EEESC_SC_SC_NS4_9ConvexityEjj(ptr noundef nonnull align 8 dereferenceable(696) %16, ptr noundef nonnull align 8 dereferenceable(16) %8, ptr noundef nonnull %11, ptr noundef nonnull %12, ptr noundef nonnull %13, ptr noundef nonnull %14, i32 noundef 0, i32 noundef %5, i32 noundef %6)
          to label %23 unwind label %51

23:                                               ; preds = %7
  %24 = getelementptr inbounds nuw i8, ptr %8, i64 8
  %25 = load ptr, ptr %24, align 8, !tbaa !28
  %26 = load i64, ptr %25, align 8
  %27 = and i64 %26, 1152920405095219200
  %.not.i.i.i = icmp eq i64 %27, 1152920405095219200
  br i1 %.not.i.i.i, label %_ZN4cvc58internal12NodeTemplateILb1EED2Ev.exit.i, label %28, !prof !53

28:                                               ; preds = %23
  %29 = add i64 %26, 1152920405095219200
  %30 = and i64 %29, 1152920405095219200
  %31 = and i64 %26, -1152920405095219201
  %32 = or disjoint i64 %30, %31
  store i64 %32, ptr %25, align 8
  %33 = icmp eq i64 %30, 0
  br i1 %33, label %34, label %_ZN4cvc58internal12NodeTemplateILb1EED2Ev.exit.i, !prof !53

34:                                               ; preds = %28
  invoke void @_ZN4cvc58internal4expr9NodeValue15markForDeletionEv(ptr noundef nonnull align 8 dereferenceable(24) %25)
          to label %_ZN4cvc58internal12NodeTemplateILb1EED2Ev.exit.i unwind label %35

35:                                               ; preds = %34
  %36 = landingpad { ptr, i32 }
          catch ptr null
  %37 = extractvalue { ptr, i32 } %36, 0
  call void @__clang_call_terminate(ptr %37) #22
  unreachable

_ZN4cvc58internal12NodeTemplateILb1EED2Ev.exit.i: ; preds = %34, %28, %23
  %38 = load ptr, ptr %8, align 8, !tbaa !28
  %39 = load i64, ptr %38, align 8
  %40 = and i64 %39, 1152920405095219200
  %.not.i.i1.i = icmp eq i64 %40, 1152920405095219200
  br i1 %.not.i.i1.i, label %_ZNSt4pairIN4cvc58internal12NodeTemplateILb1EEES3_ED2Ev.exit, label %41, !prof !53

41:                                               ; preds = %_ZN4cvc58internal12NodeTemplateILb1EED2Ev.exit.i
  %42 = add i64 %39, 1152920405095219200
  %43 = and i64 %42, 1152920405095219200
  %44 = and i64 %39, -1152920405095219201
  %45 = or disjoint i64 %43, %44
  store i64 %45, ptr %38, align 8
  %46 = icmp eq i64 %43, 0
  br i1 %46, label %47, label %_ZNSt4pairIN4cvc58internal12NodeTemplateILb1EEES3_ED2Ev.exit, !prof !53

47:                                               ; preds = %41
  invoke void @_ZN4cvc58internal4expr9NodeValue15markForDeletionEv(ptr noundef nonnull align 8 dereferenceable(24) %38)
          to label %_ZNSt4pairIN4cvc58internal12NodeTemplateILb1EEES3_ED2Ev.exit unwind label %48

48:                                               ; preds = %47
  %49 = landingpad { ptr, i32 }
          catch ptr null
  %50 = extractvalue { ptr, i32 } %49, 0
  call void @__clang_call_terminate(ptr %50) #22
  unreachable

_ZNSt4pairIN4cvc58internal12NodeTemplateILb1EEES3_ED2Ev.exit: ; preds = %_ZN4cvc58internal12NodeTemplateILb1EED2Ev.exit.i, %41, %47
  call void @llvm.lifetime.end.p0(i64 16, ptr nonnull %8) #24
  ret void

51:                                               ; preds = %7
  %52 = landingpad { ptr, i32 }
          cleanup
  call void @_ZNSt4pairIN4cvc58internal12NodeTemplateILb1EEES3_ED2Ev(ptr noundef nonnull align 8 dereferenceable(16) %8) #24
  call void @llvm.lifetime.end.p0(i64 16, ptr nonnull %8) #24
  resume { ptr, i32 } %52
}